target datalayout = "e-m:e-p270:32:32-p271:32:32-p272:64:64-i64:64-i128:128-f80:128-n8:16:32:64-S128"
target triple = "x86_64-pc-linux-gnu"

%"class.std::__cxx11::basic_string" = type { %"struct.std::__cxx11::basic_string<char>::_Alloc_hider", i64, %union.anon }
%"struct.std::__cxx11::basic_string<char>::_Alloc_hider" = type { ptr }
%union.anon = type { i64, [8 x i8] }
%"class.std::deque.54" = type { %"class.std::_Deque_base.55" }
%"class.std::_Deque_base.55" = type { %"struct.std::_Deque_base<std::__cxx11::basic_string<char>, std::allocator<std::__cxx11::basic_string<char>>>::_Deque_impl" }
%"struct.std::_Deque_base<std::__cxx11::basic_string<char>, std::allocator<std::__cxx11::basic_string<char>>>::_Deque_impl" = type { %"struct.std::_Deque_base<std::__cxx11::basic_string<char>, std::allocator<std::__cxx11::basic_string<char>>>::_Deque_impl_data" }
%"struct.std::_Deque_base<std::__cxx11::basic_string<char>, std::allocator<std::__cxx11::basic_string<char>>>::_Deque_impl_data" = type { ptr, i64, %"struct.std::_Deque_iterator.56", %"struct.std::_Deque_iterator.56" }
%"struct.std::_Deque_iterator.56" = type { ptr, ptr, ptr, ptr }
%class.V3PreLex = type <{ ptr, %"class.std::stack", i32, [4 x i8], ptr, ptr, %"class.std::deque.0", i32, i32, i8, [3 x i8], i32, i32, i8, i8, [2 x i8], %"class.std::__cxx11::basic_string", i32, i32, i32, i8, [3 x i8] }>
%"class.std::stack" = type { %"class.std::deque" }
%"class.std::deque" = type { %"class.std::_Deque_base" }
%"class.std::_Deque_base" = type { %"struct.std::_Deque_base<VPreStream *, std::allocator<VPreStream *>>::_Deque_impl" }
%"struct.std::_Deque_base<VPreStream *, std::allocator<VPreStream *>>::_Deque_impl" = type { %"struct.std::_Deque_base<VPreStream *, std::allocator<VPreStream *>>::_Deque_impl_data" }
%"struct.std::_Deque_base<VPreStream *, std::allocator<VPreStream *>>::_Deque_impl_data" = type { ptr, i64, %"struct.std::_Deque_iterator", %"struct.std::_Deque_iterator" }
%"struct.std::_Deque_iterator" = type { ptr, ptr, ptr, ptr }
%"class.std::deque.0" = type { %"class.std::_Deque_base.1" }
%"class.std::_Deque_base.1" = type { %"struct.std::_Deque_base<FileLine, std::allocator<FileLine>>::_Deque_impl" }
%"struct.std::_Deque_base<FileLine, std::allocator<FileLine>>::_Deque_impl" = type { %"struct.std::_Deque_base<FileLine, std::allocator<FileLine>>::_Deque_impl_data" }
%"struct.std::_Deque_base<FileLine, std::allocator<FileLine>>::_Deque_impl_data" = type { ptr, i64, %"struct.std::_Deque_iterator.5", %"struct.std::_Deque_iterator.5" }
%"struct.std::_Deque_iterator.5" = type { ptr, ptr, ptr, ptr }
%class.VPreStream = type <{ ptr, ptr, %"class.std::deque.54", i32, i32, i8, i8, [6 x i8] }>

@_ZN8V3PreLex13s_currentLexpE = dso_local global ptr null, align 8

; Function Attrs: inlinehint mustprogress nounwind uwtable
define linkonce_odr dso_local noundef i64 @_ZSt16__deque_buf_sizem(i64 noundef %0) #15 comdat {
  %2 = alloca i64, align 8
  store i64 %0, ptr %2, align 8, !tbaa !11
  %3 = load i64, ptr %2, align 8, !tbaa !11
  %4 = icmp ult i64 %3, 512
  br i1 %4, label %5, label %8

5:                                                ; preds = %1
  %6 = load i64, ptr %2, align 8, !tbaa !11
  %7 = udiv i64 512, %6
  br label %9

8:                                                ; preds = %1
  br label %9

9:                                                ; preds = %8, %5
  %10 = phi i64 [ %7, %5 ], [ 1, %8 ]
  ret i64 %10
}

; Function Attrs: mustprogress nounwind uwtable
define linkonce_odr dso_local noundef i64 @_ZNSt15_Deque_iteratorIP10VPreStreamRS1_PS1_E14_S_buffer_sizeEv() #4 comdat align 2 {
  %1 = call noundef i64 @_ZSt16__deque_buf_sizem(i64 noundef 8)
  ret i64 %1
}

; Function Attrs: mustprogress nounwind uwtable
define linkonce_odr dso_local void @_ZNSt15_Deque_iteratorIP10VPreStreamRS1_PS1_E11_M_set_nodeEPS3_(ptr noundef nonnull align 8 dereferenceable(32) %0, ptr noundef %1) #4 comdat align 2 {
  %3 = alloca ptr, align 8
  %4 = alloca ptr, align 8
  store ptr %0, ptr %3, align 8, !tbaa !568
  store ptr %1, ptr %4, align 8, !tbaa !580
  %5 = load ptr, ptr %3, align 8
  %6 = load ptr, ptr %4, align 8, !tbaa !580
  %7 = getelementptr inbounds nuw %"struct.std::_Deque_iterator", ptr %5, i32 0, i32 3
  store ptr %6, ptr %7, align 8, !tbaa !573
  %8 = load ptr, ptr %4, align 8, !tbaa !580
  %9 = load ptr, ptr %8, align 8, !tbaa !180
  %10 = getelementptr inbounds nuw %"struct.std::_Deque_iterator", ptr %5, i32 0, i32 1
  store ptr %9, ptr %10, align 8, !tbaa !571
  %11 = getelementptr inbounds nuw %"struct.std::_Deque_iterator", ptr %5, i32 0, i32 1
  %12 = load ptr, ptr %11, align 8, !tbaa !571
  %13 = call noundef i64 @_ZNSt15_Deque_iteratorIP10VPreStreamRS1_PS1_E14_S_buffer_sizeEv() #3
  %14 = getelementptr inbounds ptr, ptr %12, i64 %13
  %15 = getelementptr inbounds nuw %"struct.std::_Deque_iterator", ptr %5, i32 0, i32 2
  store ptr %14, ptr %15, align 8, !tbaa !572
  ret void
}

; Function Attrs: mustprogress nounwind uwtable
define linkonce_odr dso_local void @_ZNSt15_Deque_iteratorIP10VPreStreamRS1_PS1_EC2ERKS4_(ptr noundef nonnull align 8 dereferenceable(32) %0, ptr noundef nonnull align 8 dereferenceable(32) %1) unnamed_addr #4 comdat align 2 {
  %3 = alloca ptr, align 8
  %4 = alloca ptr, align 8
  store ptr %0, ptr %3, align 8, !tbaa !568
  store ptr %1, ptr %4, align 8, !tbaa !568
  %5 = load ptr, ptr %3, align 8
  %6 = getelementptr inbounds nuw %"struct.std::_Deque_iterator", ptr %5, i32 0, i32 0
  %7 = load ptr, ptr %4, align 8, !tbaa !568
  %8 = getelementptr inbounds nuw %"struct.std::_Deque_iterator", ptr %7, i32 0, i32 0
  %9 = load ptr, ptr %8, align 8, !tbaa !570
  store ptr %9, ptr %6, align 8, !tbaa !570
  %10 = getelementptr inbounds nuw %"struct.std::_Deque_iterator", ptr %5, i32 0, i32 1
  %11 = load ptr, ptr %4, align 8, !tbaa !568
  %12 = getelementptr inbounds nuw %"struct.std::_Deque_iterator", ptr %11, i32 0, i32 1
  %13 = load ptr, ptr %12, align 8, !tbaa !571
  store ptr %13, ptr %10, align 8, !tbaa !571
  %14 = getelementptr inbounds nuw %"struct.std::_Deque_iterator", ptr %5, i32 0, i32 2
  %15 = load ptr, ptr %4, align 8, !tbaa !568
  %16 = getelementptr inbounds nuw %"struct.std::_Deque_iterator", ptr %15, i32 0, i32 2
  %17 = load ptr, ptr %16, align 8, !tbaa !572
  store ptr %17, ptr %14, align 8, !tbaa !572
  %18 = getelementptr inbounds nuw %"struct.std::_Deque_iterator", ptr %5, i32 0, i32 3
  %19 = load ptr, ptr %4, align 8, !tbaa !568
  %20 = getelementptr inbounds nuw %"struct.std::_Deque_iterator", ptr %19, i32 0, i32 3
  %21 = load ptr, ptr %20, align 8, !tbaa !573
  store ptr %21, ptr %18, align 8, !tbaa !573
  ret void
}

; Function Attrs: mustprogress nounwind uwtable
define linkonce_odr dso_local noundef nonnull align 8 dereferenceable(8) ptr @_ZNKSt15_Deque_iteratorIP10VPreStreamRS1_PS1_EdeEv(ptr noundef nonnull align 8 dereferenceable(32) %0) #4 comdat align 2 {
  %2 = alloca ptr, align 8
  store ptr %0, ptr %2, align 8, !tbaa !568
  %3 = load ptr, ptr %2, align 8
  %4 = getelementptr inbounds nuw %"struct.std::_Deque_iterator", ptr %3, i32 0, i32 0
  %5 = load ptr, ptr %4, align 8, !tbaa !570
  ret ptr %5
}

; Function Attrs: mustprogress nounwind uwtable
define linkonce_odr dso_local noundef nonnull align 8 dereferenceable(32) ptr @_ZNSt15_Deque_iteratorIP10VPreStreamRS1_PS1_EmmEv(ptr noundef nonnull align 8 dereferenceable(32) %0) #4 comdat align 2 {
  %2 = alloca ptr, align 8
  store ptr %0, ptr %2, align 8, !tbaa !568
  %3 = load ptr, ptr %2, align 8
  %4 = getelementptr inbounds nuw %"struct.std::_Deque_iterator", ptr %3, i32 0, i32 0
  %5 = load ptr, ptr %4, align 8, !tbaa !570
  %6 = getelementptr inbounds nuw %"struct.std::_Deque_iterator", ptr %3, i32 0, i32 1
  %7 = load ptr, ptr %6, align 8, !tbaa !571
  %8 = icmp eq ptr %5, %7
  br i1 %8, label %9, label %16

9:                                                ; preds = %1
  %10 = getelementptr inbounds nuw %"struct.std::_Deque_iterator", ptr %3, i32 0, i32 3
  %11 = load ptr, ptr %10, align 8, !tbaa !573
  %12 = getelementptr inbounds ptr, ptr %11, i64 -1
  call void @_ZNSt15_Deque_iteratorIP10VPreStreamRS1_PS1_E11_M_set_nodeEPS3_(ptr noundef nonnull align 8 dereferenceable(32) %3, ptr noundef %12) #3
  %13 = getelementptr inbounds nuw %"struct.std::_Deque_iterator", ptr %3, i32 0, i32 2
  %14 = load ptr, ptr %13, align 8, !tbaa !572
  %15 = getelementptr inbounds nuw %"struct.std::_Deque_iterator", ptr %3, i32 0, i32 0
  store ptr %14, ptr %15, align 8, !tbaa !570
  br label %16

16:                                               ; preds = %9, %1
  %17 = getelementptr inbounds nuw %"struct.std::_Deque_iterator", ptr %3, i32 0, i32 0
  %18 = load ptr, ptr %17, align 8, !tbaa !570
  %19 = getelementptr inbounds ptr, ptr %18, i32 -1
  store ptr %19, ptr %17, align 8, !tbaa !570
  ret ptr %3
}

; Function Attrs: mustprogress nounwind uwtable
define linkonce_odr dso_local void @_ZNSt5dequeIP10VPreStreamSaIS1_EE3endEv(ptr dead_on_unwind noalias writable sret(%"struct.std::_Deque_iterator") align 8 %0, ptr noundef nonnull align 8 dereferenceable(80) %1) #4 comdat align 2 {
  %3 = alloca ptr, align 8
  %4 = alloca ptr, align 8
  store ptr %0, ptr %3, align 8
  store ptr %1, ptr %4, align 8, !tbaa !558
  %5 = load ptr, ptr %4, align 8
  %6 = getelementptr inbounds nuw %"class.std::_Deque_base", ptr %5, i32 0, i32 0
  %7 = getelementptr inbounds nuw %"struct.std::_Deque_base<VPreStream *, std::allocator<VPreStream *>>::_Deque_impl_data", ptr %6, i32 0, i32 3
  call void @_ZNSt15_Deque_iteratorIP10VPreStreamRS1_PS1_EC2ERKS4_(ptr noundef nonnull align 8 dereferenceable(32) %0, ptr noundef nonnull align 8 dereferenceable(32) %7) #3
  ret void
}

; Function Attrs: mustprogress nounwind uwtable
define linkonce_odr dso_local noundef nonnull align 8 dereferenceable(8) ptr @_ZNSt5dequeIP10VPreStreamSaIS1_EE4backEv(ptr noundef nonnull align 8 dereferenceable(80) %0) #4 comdat align 2 {
  %2 = alloca ptr, align 8
  %3 = alloca %"struct.std::_Deque_iterator", align 8
  store ptr %0, ptr %2, align 8, !tbaa !558
  %4 = load ptr, ptr %2, align 8
  call void @llvm.lifetime.start.p0(i64 32, ptr %3) #3
  call void @_ZNSt5dequeIP10VPreStreamSaIS1_EE3endEv(ptr dead_on_unwind writable sret(%"struct.std::_Deque_iterator") align 8 %3, ptr noundef nonnull align 8 dereferenceable(80) %4) #3
  %5 = call noundef nonnull align 8 dereferenceable(32) ptr @_ZNSt15_Deque_iteratorIP10VPreStreamRS1_PS1_EmmEv(ptr noundef nonnull align 8 dereferenceable(32) %3) #3
  %6 = call noundef nonnull align 8 dereferenceable(8) ptr @_ZNKSt15_Deque_iteratorIP10VPreStreamRS1_PS1_EdeEv(ptr noundef nonnull align 8 dereferenceable(32) %3) #3
  call void @llvm.lifetime.end.p0(i64 32, ptr %3) #3
  ret ptr %6
}

; Function Attrs: mustprogress nounwind uwtable
define linkonce_odr dso_local noundef nonnull align 8 dereferenceable(8) ptr @_ZNSt5stackIP10VPreStreamSt5dequeIS1_SaIS1_EEE3topEv(ptr noundef nonnull align 8 dereferenceable(80) %0) #4 comdat align 2 {
  %2 = alloca ptr, align 8
  store ptr %0, ptr %2, align 8, !tbaa !175
  %3 = load ptr, ptr %2, align 8
  %4 = getelementptr inbounds nuw %"class.std::stack", ptr %3, i32 0, i32 0
  %5 = call noundef nonnull align 8 dereferenceable(8) ptr @_ZNSt5dequeIP10VPreStreamSaIS1_EE4backEv(ptr noundef nonnull align 8 dereferenceable(80) %4) #3
  ret ptr %5
}

; Function Attrs: mustprogress uwtable
define linkonce_odr dso_local noundef ptr @_ZN8V3PreLex10curStreampEv(ptr noundef nonnull align 8 dereferenceable(264) %0) #5 comdat align 2 {
  %2 = alloca ptr, align 8
  store ptr %0, ptr %2, align 8, !tbaa !26
  %3 = load ptr, ptr %2, align 8
  %4 = getelementptr inbounds nuw %class.V3PreLex, ptr %3, i32 0, i32 1
  %5 = call noundef nonnull align 8 dereferenceable(8) ptr @_ZNSt5stackIP10VPreStreamSt5dequeIS1_SaIS1_EEE3topEv(ptr noundef nonnull align 8 dereferenceable(80) %4)
  %6 = load ptr, ptr %5, align 8, !tbaa !161
  ret ptr %6
}

; Function Attrs: mustprogress uwtable
define linkonce_odr dso_local noundef ptr @_ZN8V3PreLex12curFilelinepEv(ptr noundef nonnull align 8 dereferenceable(264) %0) #5 comdat align 2 {
  %2 = alloca ptr, align 8
  store ptr %0, ptr %2, align 8, !tbaa !26
  %3 = load ptr, ptr %2, align 8
  %4 = call noundef ptr @_ZN8V3PreLex10curStreampEv(ptr noundef nonnull align 8 dereferenceable(264) %3)
  %5 = getelementptr inbounds nuw %class.VPreStream, ptr %4, i32 0, i32 0
  %6 = load ptr, ptr %5, align 8, !tbaa !68
  ret ptr %6
}

; Function Attrs: mustprogress uwtable
define dso_local noundef i32 @_ZN8V3PreLex3lexEv(ptr noundef nonnull align 8 dereferenceable(264) %0) #5 align 2 {
  %2 = alloca ptr, align 8
  store ptr %0, ptr %2, align 8, !tbaa !26
  %3 = load ptr, ptr %2, align 8
  store ptr %3, ptr @_ZN8V3PreLex13s_currentLexpE, align 8, !tbaa !26
  %4 = call noundef ptr @_ZN8V3PreLex12curFilelinepEv(ptr noundef nonnull align 8 dereferenceable(264) %3)
  %5 = getelementptr inbounds nuw %class.V3PreLex, ptr %3, i32 0, i32 5
  store ptr %4, ptr %5, align 8, !tbaa !160
  %6 = call noundef i32 @_Z11V3PreLexlexv()
  ret i32 %6
}