; Function Attrs: mustprogress uwtable
define dso_local noundef range(i32 0, 401) i32 @_ZN8V3PreLex3lexEv(ptr noundef nonnull align 8 dereferenceable(264) %0) local_unnamed_addr #5 align 2 {
  store ptr %0, ptr @_ZN8V3PreLex13s_currentLexpE, align 8, !tbaa !32
  %2 = getelementptr inbounds nuw i8, ptr %0, i64 56
  %3 = load ptr, ptr %2, align 8, !tbaa !34, !noalias !755
  %4 = getelementptr inbounds nuw i8, ptr %0, i64 64
  %5 = load ptr, ptr %4, align 8, !tbaa !42, !noalias !755
  %6 = icmp eq ptr %3, %5
  br i1 %6, label %7, label %_ZN8V3PreLex12curFilelinepEv.exit

7:                                                ; preds = %1
  %8 = getelementptr inbounds nuw i8, ptr %0, i64 80
  %9 = load ptr, ptr %8, align 8, !tbaa !43, !noalias !755
  %10 = getelementptr inbounds i8, ptr %9, i64 -8
  %11 = load ptr, ptr %10, align 8, !tbaa !44
  %12 = getelementptr inbounds nuw i8, ptr %11, i64 512
  br label %_ZN8V3PreLex12curFilelinepEv.exit

_ZN8V3PreLex12curFilelinepEv.exit:                ; preds = %1, %7
  %13 = phi ptr [ %12, %7 ], [ %3, %1 ]
  %14 = getelementptr inbounds i8, ptr %13, i64 -8
  %15 = load ptr, ptr %14, align 8, !tbaa !45
  %16 = load ptr, ptr %15, align 8, !tbaa !47
  %17 = getelementptr inbounds nuw i8, ptr %0, i64 104
  store ptr %16, ptr %17, align 8, !tbaa !758
  %18 = tail call noundef i32 @_Z11V3PreLexlexv()
  ret i32 %18
}